target datalayout = "e-m:e-p270:32:32-p271:32:32-p272:64:64-i64:64-i128:128-f80:128-n8:16:32:64-S128"
target triple = "x86_64-pc-linux-gnu"

@hf_wai_length = internal global i32 0, align 4
@hf_wai_attr_type = internal global i32 0, align 4
@hf_wai_identity = internal global i32 0, align 4
@hf_wai_identity_id = internal global i32 0, align 4
@hf_wai_identity_len = internal global i32 0, align 4
@hf_wai_identity_data = internal global i32 0, align 4
@hf_wai_sign_alg = internal global i32 0, align 4
@hf_wai_hash_alg_id = internal global i32 0, align 4
@hf_wai_sign_alg_id = internal global i32 0, align 4
@hf_wai_param = internal global i32 0, align 4
@hf_wai_param_id = internal global i32 0, align 4
@hf_wai_param_content = internal global i32 0, align 4
@hf_wai_sign_val = internal global i32 0, align 4
@hf_wai_sign_content = internal global i32 0, align 4
@hf_wai_sign = internal global i32 0, align 4
@.str.129 = private unnamed_addr constant [10 x i8] c"Signature\00", align 1
@ett_wai_identity = internal global i32 0, align 4
@ett_wai_sign = internal global i32 0, align 4
@ett_wai_sign_alg = internal global i32 0, align 4
@ett_wai_sign_val = internal global i32 0, align 4
@ett_wai_parameter = internal global i32 0, align 4
@.str.227 = private unnamed_addr constant [11 x i8] c"%sIdentity\00", align 1
@.str.228 = private unnamed_addr constant [1 x i8] zeroinitializer, align 1
@.str.240 = private unnamed_addr constant [3 x i8] c"%s\00", align 1
@.str.241 = private unnamed_addr constant [38 x i8] c"Algorithm Identifier: SHA-256  (0x01)\00", align 1
@.str.242 = private unnamed_addr constant [50 x i8] c"Signature Algorithm Identifier: ECDSA-192  (0x01)\00", align 1

; Function Attrs: nounwind uwtable
define internal zeroext i16 @dissect_signature_value(ptr noundef %0, i32 noundef %1, ptr noundef %2) #0 {
  %4 = alloca ptr, align 8
  %5 = alloca i32, align 4
  %6 = alloca ptr, align 8
  %7 = alloca ptr, align 8
  %8 = alloca ptr, align 8
  %9 = alloca i16, align 2
  store ptr %0, ptr %4, align 8
  store i32 %1, ptr %5, align 4
  store ptr %2, ptr %6, align 8
  store i16 0, ptr %9, align 2
  %10 = load ptr, ptr %4, align 8
  %11 = load i32, ptr %5, align 4
  %12 = call zeroext i16 @tvb_get_ntohs(ptr noundef %10, i32 noundef %11)
  store i16 %12, ptr %9, align 2
  %13 = load ptr, ptr %6, align 8
  %14 = load i32, ptr @hf_wai_sign_val, align 4
  %15 = load ptr, ptr %4, align 8
  %16 = load i32, ptr %5, align 4
  %17 = load i16, ptr %9, align 2
  %18 = zext i16 %17 to i32
  %19 = add i32 %18, 2
  %20 = call ptr @proto_tree_add_item(ptr noundef %13, i32 noundef %14, ptr noundef %15, i32 noundef %16, i32 noundef %19, i32 noundef 0)
  store ptr %20, ptr %7, align 8
  %21 = load ptr, ptr %7, align 8
  %22 = load i32, ptr @ett_wai_sign_val, align 4
  %23 = call ptr @proto_item_add_subtree(ptr noundef %21, i32 noundef %22)
  store ptr %23, ptr %8, align 8
  %24 = load ptr, ptr %8, align 8
  %25 = load i32, ptr @hf_wai_length, align 4
  %26 = load ptr, ptr %4, align 8
  %27 = load i32, ptr %5, align 4
  %28 = call ptr @proto_tree_add_item(ptr noundef %24, i32 noundef %25, ptr noundef %26, i32 noundef %27, i32 noundef 2, i32 noundef 0)
  %29 = load i32, ptr %5, align 4
  %30 = add i32 %29, 2
  store i32 %30, ptr %5, align 4
  %31 = load ptr, ptr %8, align 8
  %32 = load i32, ptr @hf_wai_sign_content, align 4
  %33 = load ptr, ptr %4, align 8
  %34 = load i32, ptr %5, align 4
  %35 = load i16, ptr %9, align 2
  %36 = zext i16 %35 to i32
  %37 = call ptr @proto_tree_add_item(ptr noundef %31, i32 noundef %32, ptr noundef %33, i32 noundef %34, i32 noundef %36, i32 noundef 0)
  %38 = load i16, ptr %9, align 2
  %39 = zext i16 %38 to i32
  %40 = add i32 %39, 2
  %41 = trunc i32 %40 to i16
  ret i16 %41
}

; Function Attrs: nounwind uwtable
define internal zeroext i16 @dissect_signature_algorithm(ptr noundef %0, i32 noundef %1, ptr noundef %2) #0 {
  %4 = alloca ptr, align 8
  %5 = alloca i32, align 4
  %6 = alloca ptr, align 8
  %7 = alloca ptr, align 8
  %8 = alloca ptr, align 8
  %9 = alloca ptr, align 8
  %10 = alloca ptr, align 8
  %11 = alloca ptr, align 8
  %12 = alloca ptr, align 8
  %13 = alloca i16, align 2
  %14 = alloca i8, align 1
  %15 = alloca i8, align 1
  %16 = alloca i16, align 2
  store ptr %0, ptr %4, align 8
  store i32 %1, ptr %5, align 4
  store ptr %2, ptr %6, align 8
  %17 = load ptr, ptr %4, align 8
  %18 = load i32, ptr %5, align 4
  %19 = call zeroext i16 @tvb_get_ntohs(ptr noundef %17, i32 noundef %18)
  store i16 %19, ptr %13, align 2
  %20 = load ptr, ptr %6, align 8
  %21 = load i32, ptr @hf_wai_sign_alg, align 4
  %22 = load ptr, ptr %4, align 8
  %23 = load i32, ptr %5, align 4
  %24 = load i16, ptr %13, align 2
  %25 = zext i16 %24 to i32
  %26 = add i32 %25, 2
  %27 = call ptr @proto_tree_add_item(ptr noundef %20, i32 noundef %21, ptr noundef %22, i32 noundef %23, i32 noundef %26, i32 noundef 0)
  store ptr %27, ptr %7, align 8
  %28 = load ptr, ptr %7, align 8
  %29 = load i32, ptr @ett_wai_sign_alg, align 4
  %30 = call ptr @proto_item_add_subtree(ptr noundef %28, i32 noundef %29)
  store ptr %30, ptr %8, align 8
  %31 = load ptr, ptr %8, align 8
  %32 = load i32, ptr @hf_wai_length, align 4
  %33 = load ptr, ptr %4, align 8
  %34 = load i32, ptr %5, align 4
  %35 = call ptr @proto_tree_add_item(ptr noundef %31, i32 noundef %32, ptr noundef %33, i32 noundef %34, i32 noundef 2, i32 noundef 0)
  %36 = load i32, ptr %5, align 4
  %37 = add i32 %36, 2
  store i32 %37, ptr %5, align 4
  %38 = load ptr, ptr %8, align 8
  %39 = load i32, ptr @hf_wai_hash_alg_id, align 4
  %40 = load ptr, ptr %4, align 8
  %41 = load i32, ptr %5, align 4
  %42 = call ptr @proto_tree_add_item(ptr noundef %38, i32 noundef %39, ptr noundef %40, i32 noundef %41, i32 noundef 1, i32 noundef 0)
  store ptr %42, ptr %11, align 8
  %43 = load ptr, ptr %4, align 8
  %44 = load i32, ptr %5, align 4
  %45 = call zeroext i8 @tvb_get_guint8(ptr noundef %43, i32 noundef %44)
  store i8 %45, ptr %14, align 1
  %46 = load i8, ptr %14, align 1
  %47 = zext i8 %46 to i32
  %48 = icmp eq i32 1, %47
  br i1 %48, label %49, label %51

49:                                               ; preds = %3
  %50 = load ptr, ptr %11, align 8
  call void (ptr, ptr, ...) @proto_item_set_text(ptr noundef %50, ptr noundef @.str.241)
  br label %51

51:                                               ; preds = %49, %3
  %52 = load i32, ptr %5, align 4
  %53 = add i32 %52, 1
  store i32 %53, ptr %5, align 4
  %54 = load ptr, ptr %8, align 8
  %55 = load i32, ptr @hf_wai_sign_alg_id, align 4
  %56 = load ptr, ptr %4, align 8
  %57 = load i32, ptr %5, align 4
  %58 = call ptr @proto_tree_add_item(ptr noundef %54, i32 noundef %55, ptr noundef %56, i32 noundef %57, i32 noundef 1, i32 noundef 0)
  store ptr %58, ptr %12, align 8
  %59 = load ptr, ptr %4, align 8
  %60 = load i32, ptr %5, align 4
  %61 = call zeroext i8 @tvb_get_guint8(ptr noundef %59, i32 noundef %60)
  store i8 %61, ptr %15, align 1
  %62 = load i8, ptr %15, align 1
  %63 = zext i8 %62 to i32
  %64 = icmp eq i32 1, %63
  br i1 %64, label %65, label %67

65:                                               ; preds = %51
  %66 = load ptr, ptr %12, align 8
  call void (ptr, ptr, ...) @proto_item_set_text(ptr noundef %66, ptr noundef @.str.242)
  br label %67

67:                                               ; preds = %65, %51
  %68 = load i32, ptr %5, align 4
  %69 = add i32 %68, 1
  store i32 %69, ptr %5, align 4
  %70 = load ptr, ptr %4, align 8
  %71 = load i32, ptr %5, align 4
  %72 = add i32 %71, 1
  %73 = call zeroext i16 @tvb_get_ntohs(ptr noundef %70, i32 noundef %72)
  store i16 %73, ptr %16, align 2
  %74 = load ptr, ptr %8, align 8
  %75 = load i32, ptr @hf_wai_param, align 4
  %76 = load ptr, ptr %4, align 8
  %77 = load i32, ptr %5, align 4
  %78 = load i16, ptr %16, align 2
  %79 = zext i16 %78 to i32
  %80 = add i32 %79, 3
  %81 = call ptr @proto_tree_add_item(ptr noundef %74, i32 noundef %75, ptr noundef %76, i32 noundef %77, i32 noundef %80, i32 noundef 0)
  store ptr %81, ptr %9, align 8
  %82 = load ptr, ptr %9, align 8
  %83 = load i32, ptr @ett_wai_parameter, align 4
  %84 = call ptr @proto_item_add_subtree(ptr noundef %82, i32 noundef %83)
  store ptr %84, ptr %10, align 8
  %85 = load ptr, ptr %10, align 8
  %86 = load i32, ptr @hf_wai_param_id, align 4
  %87 = load ptr, ptr %4, align 8
  %88 = load i32, ptr %5, align 4
  %89 = call ptr @proto_tree_add_item(ptr noundef %85, i32 noundef %86, ptr noundef %87, i32 noundef %88, i32 noundef 1, i32 noundef 0)
  %90 = load i32, ptr %5, align 4
  %91 = add i32 %90, 1
  store i32 %91, ptr %5, align 4
  %92 = load ptr, ptr %10, align 8
  %93 = load i32, ptr @hf_wai_length, align 4
  %94 = load ptr, ptr %4, align 8
  %95 = load i32, ptr %5, align 4
  %96 = call ptr @proto_tree_add_item(ptr noundef %92, i32 noundef %93, ptr noundef %94, i32 noundef %95, i32 noundef 2, i32 noundef 0)
  %97 = load i32, ptr %5, align 4
  %98 = add i32 %97, 2
  store i32 %98, ptr %5, align 4
  %99 = load ptr, ptr %10, align 8
  %100 = load i32, ptr @hf_wai_param_content, align 4
  %101 = load ptr, ptr %4, align 8
  %102 = load i32, ptr %5, align 4
  %103 = load i16, ptr %16, align 2
  %104 = zext i16 %103 to i32
  %105 = call ptr @proto_tree_add_item(ptr noundef %99, i32 noundef %100, ptr noundef %101, i32 noundef %102, i32 noundef %104, i32 noundef 0)
  %106 = load i16, ptr %13, align 2
  %107 = zext i16 %106 to i32
  %108 = add i32 %107, 2
  %109 = trunc i32 %108 to i16
  ret i16 %109
}

; Function Attrs: nounwind uwtable
define internal zeroext i16 @dissect_identity(ptr noundef %0, i16 noundef zeroext %1, ptr noundef %2, ptr noundef %3) #0 {
  %5 = alloca ptr, align 8
  %6 = alloca i16, align 2
  %7 = alloca ptr, align 8
  %8 = alloca ptr, align 8
  %9 = alloca ptr, align 8
  %10 = alloca ptr, align 8
  %11 = alloca i16, align 2
  store ptr %0, ptr %5, align 8
  store i16 %1, ptr %6, align 2
  store ptr %2, ptr %7, align 8
  store ptr %3, ptr %8, align 8
  %12 = load ptr, ptr %5, align 8
  %13 = load i16, ptr %6, align 2
  %14 = zext i16 %13 to i32
  %15 = add i32 %14, 2
  %16 = call zeroext i16 @tvb_get_ntohs(ptr noundef %12, i32 noundef %15)
  store i16 %16, ptr %11, align 2
  %17 = load ptr, ptr %7, align 8
  %18 = load i32, ptr @hf_wai_identity, align 4
  %19 = load ptr, ptr %5, align 8
  %20 = load i16, ptr %6, align 2
  %21 = zext i16 %20 to i32
  %22 = load i16, ptr %11, align 2
  %23 = zext i16 %22 to i32
  %24 = add i32 %23, 4
  %25 = call ptr @proto_tree_add_item(ptr noundef %17, i32 noundef %18, ptr noundef %19, i32 noundef %21, i32 noundef %24, i32 noundef 0)
  store ptr %25, ptr %10, align 8
  %26 = load ptr, ptr %10, align 8
  %27 = load i32, ptr @ett_wai_identity, align 4
  %28 = call ptr @proto_item_add_subtree(ptr noundef %26, i32 noundef %27)
  store ptr %28, ptr %9, align 8
  %29 = load ptr, ptr %10, align 8
  %30 = load ptr, ptr %8, align 8
  %31 = icmp eq ptr %30, null
  br i1 %31, label %32, label %33

32:                                               ; preds = %4
  br label %35

33:                                               ; preds = %4
  %34 = load ptr, ptr %8, align 8
  br label %35

35:                                               ; preds = %33, %32
  %36 = phi ptr [ @.str.228, %32 ], [ %34, %33 ]
  call void (ptr, ptr, ...) @proto_item_set_text(ptr noundef %29, ptr noundef @.str.227, ptr noundef %36)
  %37 = load ptr, ptr %9, align 8
  %38 = load i32, ptr @hf_wai_identity_id, align 4
  %39 = load ptr, ptr %5, align 8
  %40 = load i16, ptr %6, align 2
  %41 = zext i16 %40 to i32
  %42 = call ptr @proto_tree_add_item(ptr noundef %37, i32 noundef %38, ptr noundef %39, i32 noundef %41, i32 noundef 2, i32 noundef 0)
  %43 = load ptr, ptr %9, align 8
  %44 = load i32, ptr @hf_wai_identity_len, align 4
  %45 = load ptr, ptr %5, align 8
  %46 = load i16, ptr %6, align 2
  %47 = zext i16 %46 to i32
  %48 = add i32 %47, 2
  %49 = call ptr @proto_tree_add_item(ptr noundef %43, i32 noundef %44, ptr noundef %45, i32 noundef %48, i32 noundef 2, i32 noundef 0)
  %50 = load ptr, ptr %9, align 8
  %51 = load i32, ptr @hf_wai_identity_data, align 4
  %52 = load ptr, ptr %5, align 8
  %53 = load i16, ptr %6, align 2
  %54 = zext i16 %53 to i32
  %55 = add i32 %54, 4
  %56 = load i16, ptr %11, align 2
  %57 = zext i16 %56 to i32
  %58 = call ptr @proto_tree_add_item(ptr noundef %50, i32 noundef %51, ptr noundef %52, i32 noundef %55, i32 noundef %57, i32 noundef 0)
  %59 = load i16, ptr %11, align 2
  %60 = zext i16 %59 to i32
  %61 = add i32 %60, 4
  %62 = trunc i32 %61 to i16
  ret i16 %62
}

; Function Attrs: nounwind uwtable
define internal zeroext i16 @dissect_signature(ptr noundef %0, i32 noundef %1, ptr noundef %2, ptr noundef %3) #0 {
  %5 = alloca ptr, align 8
  %6 = alloca i32, align 4
  %7 = alloca ptr, align 8
  %8 = alloca ptr, align 8
  %9 = alloca ptr, align 8
  %10 = alloca ptr, align 8
  %11 = alloca i32, align 4
  store ptr %0, ptr %5, align 8
  store i32 %1, ptr %6, align 4
  store ptr %2, ptr %7, align 8
  store ptr %3, ptr %8, align 8
  store i32 0, ptr %11, align 4
  %12 = load ptr, ptr %5, align 8
  %13 = load i32, ptr %6, align 4
  %14 = add i32 %13, 1
  %15 = call zeroext i16 @tvb_get_ntohs(ptr noundef %12, i32 noundef %14)
  %16 = zext i16 %15 to i32
  store i32 %16, ptr %11, align 4
  %17 = load ptr, ptr %7, align 8
  %18 = load i32, ptr @hf_wai_sign, align 4
  %19 = load ptr, ptr %5, align 8
  %20 = load i32, ptr %6, align 4
  %21 = load i32, ptr %11, align 4
  %22 = add i32 %21, 3
  %23 = call ptr @proto_tree_add_item(ptr noundef %17, i32 noundef %18, ptr noundef %19, i32 noundef %20, i32 noundef %22, i32 noundef 0)
  store ptr %23, ptr %9, align 8
  %24 = load ptr, ptr %9, align 8
  %25 = load ptr, ptr %8, align 8
  %26 = icmp eq ptr %25, null
  br i1 %26, label %27, label %28

27:                                               ; preds = %4
  br label %30

28:                                               ; preds = %4
  %29 = load ptr, ptr %8, align 8
  br label %30

30:                                               ; preds = %28, %27
  %31 = phi ptr [ @.str.129, %27 ], [ %29, %28 ]
  call void (ptr, ptr, ...) @proto_item_set_text(ptr noundef %24, ptr noundef @.str.240, ptr noundef %31)
  %32 = load ptr, ptr %9, align 8
  %33 = load i32, ptr @ett_wai_sign, align 4
  %34 = call ptr @proto_item_add_subtree(ptr noundef %32, i32 noundef %33)
  store ptr %34, ptr %10, align 8
  %35 = load ptr, ptr %10, align 8
  %36 = load i32, ptr @hf_wai_attr_type, align 4
  %37 = load ptr, ptr %5, align 8
  %38 = load i32, ptr %6, align 4
  %39 = call ptr @proto_tree_add_item(ptr noundef %35, i32 noundef %36, ptr noundef %37, i32 noundef %38, i32 noundef 1, i32 noundef 0)
  %40 = load i32, ptr %6, align 4
  %41 = add i32 %40, 1
  store i32 %41, ptr %6, align 4
  %42 = load ptr, ptr %10, align 8
  %43 = load i32, ptr @hf_wai_length, align 4
  %44 = load ptr, ptr %5, align 8
  %45 = load i32, ptr %6, align 4
  %46 = call ptr @proto_tree_add_item(ptr noundef %42, i32 noundef %43, ptr noundef %44, i32 noundef %45, i32 noundef 2, i32 noundef 0)
  %47 = load i32, ptr %6, align 4
  %48 = add i32 %47, 2
  store i32 %48, ptr %6, align 4
  %49 = load ptr, ptr %5, align 8
  %50 = load i32, ptr %6, align 4
  %51 = trunc i32 %50 to i16
  %52 = load ptr, ptr %10, align 8
  %53 = call zeroext i16 @dissect_identity(ptr noundef %49, i16 noundef zeroext %51, ptr noundef %52, ptr noundef null)
  %54 = zext i16 %53 to i32
  %55 = load i32, ptr %6, align 4
  %56 = add i32 %55, %54
  store i32 %56, ptr %6, align 4
  %57 = load ptr, ptr %5, align 8
  %58 = load i32, ptr %6, align 4
  %59 = load ptr, ptr %10, align 8
  %60 = call zeroext i16 @dissect_signature_algorithm(ptr noundef %57, i32 noundef %58, ptr noundef %59)
  %61 = zext i16 %60 to i32
  %62 = load i32, ptr %6, align 4
  %63 = add i32 %62, %61
  store i32 %63, ptr %6, align 4
  %64 = load ptr, ptr %5, align 8
  %65 = load i32, ptr %6, align 4
  %66 = load ptr, ptr %10, align 8
  %67 = call zeroext i16 @dissect_signature_value(ptr noundef %64, i32 noundef %65, ptr noundef %66)
  %68 = load i32, ptr %11, align 4
  %69 = add i32 %68, 3
  %70 = trunc i32 %69 to i16
  ret i16 %70
}