; Function Attrs: nounwind uwtable
define internal fastcc noundef zeroext i16 @dissect_signature(ptr noundef %0, i32 noundef range(i32 -2147483648, 65536) %1, ptr noundef %2, ptr noundef %3) unnamed_addr #0 {
  %5 = add nsw i32 %1, 1
  %6 = tail call zeroext i16 @tvb_get_ntohs(ptr noundef %0, i32 noundef %5) #3
  %7 = zext i16 %6 to i32
  %8 = load i32, ptr @hf_wai_sign, align 4
  %9 = add nuw nsw i32 %7, 3
  %10 = tail call ptr @proto_tree_add_item(ptr noundef %2, i32 noundef %8, ptr noundef %0, i32 noundef %1, i32 noundef %9, i32 noundef 0) #3
  %11 = icmp eq ptr %3, null
  %12 = select i1 %11, ptr @.str.129, ptr %3
  tail call void (ptr, ptr, ...) @proto_item_set_text(ptr noundef %10, ptr noundef nonnull @.str.240, ptr noundef nonnull %12) #3
  %13 = load i32, ptr @ett_wai_sign, align 4
  %14 = tail call ptr @proto_item_add_subtree(ptr noundef %10, i32 noundef %13) #3
  %15 = load i32, ptr @hf_wai_attr_type, align 4
  %16 = tail call ptr @proto_tree_add_item(ptr noundef %14, i32 noundef %15, ptr noundef %0, i32 noundef %1, i32 noundef 1, i32 noundef 0) #3
  %17 = load i32, ptr @hf_wai_length, align 4
  %18 = tail call ptr @proto_tree_add_item(ptr noundef %14, i32 noundef %17, ptr noundef %0, i32 noundef %5, i32 noundef 2, i32 noundef 0) #3
  %19 = add nsw i32 %1, 3
  %20 = and i32 %19, 65535
  %21 = add nuw nsw i32 %20, 2
  %22 = tail call zeroext i16 @tvb_get_ntohs(ptr noundef %0, i32 noundef %21) #3
  %23 = load i32, ptr @hf_wai_identity, align 4
  %24 = zext i16 %22 to i32
  %25 = add nuw nsw i32 %24, 4
  %26 = tail call ptr @proto_tree_add_item(ptr noundef %14, i32 noundef %23, ptr noundef %0, i32 noundef %20, i32 noundef %25, i32 noundef 0) #3
  %27 = load i32, ptr @ett_wai_identity, align 4
  %28 = tail call ptr @proto_item_add_subtree(ptr noundef %26, i32 noundef %27) #3
  tail call void (ptr, ptr, ...) @proto_item_set_text(ptr noundef %26, ptr noundef nonnull @.str.227, ptr noundef nonnull @.str.228) #3
  %29 = load i32, ptr @hf_wai_identity_id, align 4
  %30 = tail call ptr @proto_tree_add_item(ptr noundef %28, i32 noundef %29, ptr noundef %0, i32 noundef %20, i32 noundef 2, i32 noundef 0) #3
  %31 = load i32, ptr @hf_wai_identity_len, align 4
  %32 = tail call ptr @proto_tree_add_item(ptr noundef %28, i32 noundef %31, ptr noundef %0, i32 noundef %21, i32 noundef 2, i32 noundef 0) #3
  %33 = load i32, ptr @hf_wai_identity_data, align 4
  %34 = add nuw nsw i32 %20, 4
  %35 = tail call ptr @proto_tree_add_item(ptr noundef %28, i32 noundef %33, ptr noundef %0, i32 noundef %34, i32 noundef %24, i32 noundef 0) #3
  %36 = and i32 %25, 65535
  %37 = add nsw i32 %36, %19
  %38 = tail call zeroext i16 @tvb_get_ntohs(ptr noundef %0, i32 noundef range(i32 -2147483645, 131074) %37) #3
  %39 = load i32, ptr @hf_wai_sign_alg, align 4
  %40 = zext i16 %38 to i32
  %41 = add nuw nsw i32 %40, 2
  %42 = tail call ptr @proto_tree_add_item(ptr noundef %14, i32 noundef %39, ptr noundef %0, i32 noundef range(i32 -2147483645, 131074) %37, i32 noundef %41, i32 noundef 0) #3
  %43 = load i32, ptr @ett_wai_sign_alg, align 4
  %44 = tail call ptr @proto_item_add_subtree(ptr noundef %42, i32 noundef %43) #3
  %45 = load i32, ptr @hf_wai_length, align 4
  %46 = tail call ptr @proto_tree_add_item(ptr noundef %44, i32 noundef %45, ptr noundef %0, i32 noundef range(i32 -2147483645, 131074) %37, i32 noundef 2, i32 noundef 0) #3
  %47 = add nsw i32 %37, 2
  %48 = load i32, ptr @hf_wai_hash_alg_id, align 4
  %49 = tail call ptr @proto_tree_add_item(ptr noundef %44, i32 noundef %48, ptr noundef %0, i32 noundef %47, i32 noundef 1, i32 noundef 0) #3
  %50 = tail call zeroext i8 @tvb_get_guint8(ptr noundef %0, i32 noundef %47) #3
  %51 = icmp eq i8 %50, 1
  br i1 %51, label %52, label %53

52:                                               ; preds = %4
  tail call void (ptr, ptr, ...) @proto_item_set_text(ptr noundef %49, ptr noundef nonnull @.str.241) #3
  br label %53

53:                                               ; preds = %52, %4
  %54 = add nsw i32 %37, 3
  %55 = load i32, ptr @hf_wai_sign_alg_id, align 4
  %56 = tail call ptr @proto_tree_add_item(ptr noundef %44, i32 noundef %55, ptr noundef %0, i32 noundef %54, i32 noundef 1, i32 noundef 0) #3
  %57 = tail call zeroext i8 @tvb_get_guint8(ptr noundef %0, i32 noundef %54) #3
  %58 = icmp eq i8 %57, 1
  br i1 %58, label %59, label %dissect_signature_algorithm.exit

59:                                               ; preds = %53
  tail call void (ptr, ptr, ...) @proto_item_set_text(ptr noundef %56, ptr noundef nonnull @.str.242) #3
  br label %dissect_signature_algorithm.exit

dissect_signature_algorithm.exit:                 ; preds = %53, %59
  %60 = add nsw i32 %37, 4
  %61 = add nsw i32 %37, 5
  %62 = tail call zeroext i16 @tvb_get_ntohs(ptr noundef %0, i32 noundef %61) #3
  %63 = load i32, ptr @hf_wai_param, align 4
  %64 = zext i16 %62 to i32
  %65 = add nuw nsw i32 %64, 3
  %66 = tail call ptr @proto_tree_add_item(ptr noundef %44, i32 noundef %63, ptr noundef %0, i32 noundef %60, i32 noundef %65, i32 noundef 0) #3
  %67 = load i32, ptr @ett_wai_parameter, align 4
  %68 = tail call ptr @proto_item_add_subtree(ptr noundef %66, i32 noundef %67) #3
  %69 = load i32, ptr @hf_wai_param_id, align 4
  %70 = tail call ptr @proto_tree_add_item(ptr noundef %68, i32 noundef %69, ptr noundef %0, i32 noundef %60, i32 noundef 1, i32 noundef 0) #3
  %71 = load i32, ptr @hf_wai_length, align 4
  %72 = tail call ptr @proto_tree_add_item(ptr noundef %68, i32 noundef %71, ptr noundef %0, i32 noundef %61, i32 noundef 2, i32 noundef 0) #3
  %73 = add nsw i32 %37, 7
  %74 = load i32, ptr @hf_wai_param_content, align 4
  %75 = tail call ptr @proto_tree_add_item(ptr noundef %68, i32 noundef %74, ptr noundef %0, i32 noundef %73, i32 noundef %64, i32 noundef 0) #3
  %76 = and i32 %41, 65535
  %77 = add nsw i32 %76, %37
  %78 = tail call zeroext i16 @tvb_get_ntohs(ptr noundef %0, i32 noundef range(i32 -2147483645, 196609) %77) #3
  %79 = load i32, ptr @hf_wai_sign_val, align 4
  %80 = zext i16 %78 to i32
  %81 = add nuw nsw i32 %80, 2
  %82 = tail call ptr @proto_tree_add_item(ptr noundef %14, i32 noundef %79, ptr noundef %0, i32 noundef range(i32 -2147483645, 196609) %77, i32 noundef %81, i32 noundef 0) #3
  %83 = load i32, ptr @ett_wai_sign_val, align 4
  %84 = tail call ptr @proto_item_add_subtree(ptr noundef %82, i32 noundef %83) #3
  %85 = load i32, ptr @hf_wai_length, align 4
  %86 = tail call ptr @proto_tree_add_item(ptr noundef %84, i32 noundef %85, ptr noundef %0, i32 noundef range(i32 -2147483645, 196609) %77, i32 noundef 2, i32 noundef 0) #3
  %87 = add nsw i32 %77, 2
  %88 = load i32, ptr @hf_wai_sign_content, align 4
  %89 = tail call ptr @proto_tree_add_item(ptr noundef %84, i32 noundef %88, ptr noundef %0, i32 noundef %87, i32 noundef %80, i32 noundef 0) #3
  %90 = trunc i32 %9 to i16
  ret i16 %90
}